(lp0
(lp1
S'IRev1'
p2
aS'>'
p3
aI3
aa(lp4
S'FF'
p5
aS'<'
p6
aI70
aa(lp7
S'Eta'
p8
aS'<'
p9
aI16
aa(lp10
S'FF'
p11
aS'<'
p12
aI75
aa(lp13
S'Rsh'
p14
aS'<'
p15
aI20
aa(lp16
S'Eta'
p17
aS'<'
p18
aI18
aa.